target datalayout = "e-m:e-p270:32:32-p271:32:32-p272:64:64-i64:64-i128:128-f80:128-n8:16:32:64-S128"
target triple = "x86_64-unknown-linux-gnu"

%"class.std::__cxx11::basic_string" = type { %"struct.std::__cxx11::basic_string<char>::_Alloc_hider", i64, %union.anon }
%"struct.std::__cxx11::basic_string<char>::_Alloc_hider" = type { ptr }
%union.anon = type { i64, [8 x i8] }
%"class.OpenColorIO_v2_4dev::GammaOpData" = type { %"class.OpenColorIO_v2_4dev::OpData", i32, %"class.std::vector.9", %"class.std::vector.9", %"class.std::vector.9", %"class.std::vector.9" }
%"class.OpenColorIO_v2_4dev::OpData" = type { ptr, %"class.std::mutex", %"class.OpenColorIO_v2_4dev::FormatMetadataImpl" }
%"class.std::mutex" = type { %"class.std::__mutex_base" }
%"class.std::__mutex_base" = type { %union.pthread_mutex_t }
%union.pthread_mutex_t = type { %struct.__pthread_mutex_s }
%struct.__pthread_mutex_s = type { i32, i32, i32, i32, i32, i16, i16, %struct.__pthread_internal_list }
%struct.__pthread_internal_list = type { ptr, ptr }
%"class.OpenColorIO_v2_4dev::FormatMetadataImpl" = type { %"class.OpenColorIO_v2_4dev::FormatMetadata", %"class.std::__cxx11::basic_string", %"class.std::__cxx11::basic_string", %"class.std::vector", %"class.std::vector.4" }
%"class.OpenColorIO_v2_4dev::FormatMetadata" = type { ptr }
%"class.std::vector" = type { %"struct.std::_Vector_base" }
%"struct.std::_Vector_base" = type { %"struct.std::_Vector_base<std::pair<std::__cxx11::basic_string<char>, std::__cxx11::basic_string<char>>, std::allocator<std::pair<std::__cxx11::basic_string<char>, std::__cxx11::basic_string<char>>>>::_Vector_impl" }
%"struct.std::_Vector_base<std::pair<std::__cxx11::basic_string<char>, std::__cxx11::basic_string<char>>, std::allocator<std::pair<std::__cxx11::basic_string<char>, std::__cxx11::basic_string<char>>>>::_Vector_impl" = type { %"struct.std::_Vector_base<std::pair<std::__cxx11::basic_string<char>, std::__cxx11::basic_string<char>>, std::allocator<std::pair<std::__cxx11::basic_string<char>, std::__cxx11::basic_string<char>>>>::_Vector_impl_data" }
%"struct.std::_Vector_base<std::pair<std::__cxx11::basic_string<char>, std::__cxx11::basic_string<char>>, std::allocator<std::pair<std::__cxx11::basic_string<char>, std::__cxx11::basic_string<char>>>>::_Vector_impl_data" = type { ptr, ptr, ptr }
%"class.std::vector.4" = type { %"struct.std::_Vector_base.5" }
%"struct.std::_Vector_base.5" = type { %"struct.std::_Vector_base<OpenColorIO_v2_4dev::FormatMetadataImpl, std::allocator<OpenColorIO_v2_4dev::FormatMetadataImpl>>::_Vector_impl" }
%"struct.std::_Vector_base<OpenColorIO_v2_4dev::FormatMetadataImpl, std::allocator<OpenColorIO_v2_4dev::FormatMetadataImpl>>::_Vector_impl" = type { %"struct.std::_Vector_base<OpenColorIO_v2_4dev::FormatMetadataImpl, std::allocator<OpenColorIO_v2_4dev::FormatMetadataImpl>>::_Vector_impl_data" }
%"struct.std::_Vector_base<OpenColorIO_v2_4dev::FormatMetadataImpl, std::allocator<OpenColorIO_v2_4dev::FormatMetadataImpl>>::_Vector_impl_data" = type { ptr, ptr, ptr }
%"class.std::vector.9" = type { %"struct.std::_Vector_base.10" }
%"struct.std::_Vector_base.10" = type { %"struct.std::_Vector_base<double, std::allocator<double>>::_Vector_impl" }
%"struct.std::_Vector_base<double, std::allocator<double>>::_Vector_impl" = type { %"struct.std::_Vector_base<double, std::allocator<double>>::_Vector_impl_data" }
%"struct.std::_Vector_base<double, std::allocator<double>>::_Vector_impl_data" = type { ptr, ptr, ptr }

; Function Attrs: mustprogress nounwind uwtable
define hidden void @_ZN19OpenColorIO_v2_4dev11GammaOpData8setStyleERKNS0_5StyleE(ptr noundef nonnull align 8 dereferenceable(272) %this, ptr noundef nonnull align 4 dereferenceable(4) %style) #5 align 2 {
entry:
  %this.addr = alloca ptr, align 8
  %style.addr = alloca ptr, align 8
  store ptr %this, ptr %this.addr, align 8
  store ptr %style, ptr %style.addr, align 8
  %this1 = load ptr, ptr %this.addr, align 8
  %0 = load ptr, ptr %style.addr, align 8
  %1 = load i32, ptr %0, align 4
  %m_style = getelementptr inbounds %"class.OpenColorIO_v2_4dev::GammaOpData", ptr %this1, i32 0, i32 1
  store i32 %1, ptr %m_style, align 8
  ret void
}

; Function Attrs: mustprogress nounwind uwtable
define linkonce_odr hidden noundef i32 @_ZNK19OpenColorIO_v2_4dev11GammaOpData8getStyleEv(ptr noundef nonnull align 8 dereferenceable(272) %this) #5 comdat align 2 {
entry:
  %this.addr = alloca ptr, align 8
  store ptr %this, ptr %this.addr, align 8
  %this1 = load ptr, ptr %this.addr, align 8
  %m_style = getelementptr inbounds %"class.OpenColorIO_v2_4dev::GammaOpData", ptr %this1, i32 0, i32 1
  %0 = load i32, ptr %m_style, align 8
  ret i32 %0
}

; Function Attrs: mustprogress nounwind uwtable
define hidden void @_ZN19OpenColorIO_v2_4dev11GammaOpData6invertEv(ptr noundef nonnull align 8 dereferenceable(272) %this) #5 align 2 {
entry:
  %this.addr = alloca ptr, align 8
  %invStyle = alloca i32, align 4
  store ptr %this, ptr %this.addr, align 8
  %this1 = load ptr, ptr %this.addr, align 8
  store i32 0, ptr %invStyle, align 4
  %call = call noundef i32 @_ZNK19OpenColorIO_v2_4dev11GammaOpData8getStyleEv(ptr noundef nonnull align 8 dereferenceable(272) %this1) #3
  switch i32 %call, label %sw.epilog [
    i32 0, label %sw.bb
    i32 1, label %sw.bb2
    i32 2, label %sw.bb3
    i32 3, label %sw.bb4
    i32 4, label %sw.bb5
    i32 5, label %sw.bb6
    i32 6, label %sw.bb7
    i32 7, label %sw.bb8
    i32 8, label %sw.bb9
    i32 9, label %sw.bb10
  ]

sw.bb:                                            ; preds = %entry
  store i32 1, ptr %invStyle, align 4
  br label %sw.epilog

sw.bb2:                                           ; preds = %entry
  store i32 0, ptr %invStyle, align 4
  br label %sw.epilog

sw.bb3:                                           ; preds = %entry
  store i32 3, ptr %invStyle, align 4
  br label %sw.epilog

sw.bb4:                                           ; preds = %entry
  store i32 2, ptr %invStyle, align 4
  br label %sw.epilog

sw.bb5:                                           ; preds = %entry
  store i32 5, ptr %invStyle, align 4
  br label %sw.epilog

sw.bb6:                                           ; preds = %entry
  store i32 4, ptr %invStyle, align 4
  br label %sw.epilog

sw.bb7:                                           ; preds = %entry
  store i32 7, ptr %invStyle, align 4
  br label %sw.epilog

sw.bb8:                                           ; preds = %entry
  store i32 6, ptr %invStyle, align 4
  br label %sw.epilog

sw.bb9:                                           ; preds = %entry
  store i32 9, ptr %invStyle, align 4
  br label %sw.epilog

sw.bb10:                                          ; preds = %entry
  store i32 8, ptr %invStyle, align 4
  br label %sw.epilog

sw.epilog:                                        ; preds = %sw.bb10, %sw.bb9, %sw.bb8, %sw.bb7, %sw.bb6, %sw.bb5, %sw.bb4, %sw.bb3, %sw.bb2, %sw.bb, %entry
  call void @_ZN19OpenColorIO_v2_4dev11GammaOpData8setStyleERKNS0_5StyleE(ptr noundef nonnull align 8 dereferenceable(272) %this1, ptr noundef nonnull align 4 dereferenceable(4) %invStyle) #3
  ret void
}