; Function Attrs: mustprogress nofree norecurse nosync nounwind willreturn memory(argmem: readwrite) uwtable
define hidden void @_ZN19OpenColorIO_v2_4dev11GammaOpData6invertEv(ptr nocapture noundef nonnull align 8 dereferenceable(272) %this) local_unnamed_addr #6 align 2 {
entry:
  %m_style.i = getelementptr inbounds i8, ptr %this, i64 168
  %0 = load i32, ptr %m_style.i, align 8
  %1 = icmp ult i32 %0, 10
  br i1 %1, label %switch.lookup, label %sw.epilog

switch.lookup:                                    ; preds = %entry
  %2 = zext nneg i32 %0 to i64
  %switch.gep = getelementptr inbounds [10 x i32], ptr @switch.table._ZN19OpenColorIO_v2_4dev11GammaOpData12setDirectionENS_18TransformDirectionE.4, i64 0, i64 %2
  %switch.load = load i32, ptr %switch.gep, align 4
  br label %sw.epilog

sw.epilog:                                        ; preds = %switch.lookup, %entry
  %invStyle.0 = phi i32 [ 0, %entry ], [ %switch.load, %switch.lookup ]
  store i32 %invStyle.0, ptr %m_style.i, align 8
  ret void
}